MPASM  5.51                          MAIN.ASM   5-28-2017  23:50:07         PAGE  1


LOC  OBJECT CODE     LINE SOURCE TEXT
  VALUE

                      00001         include hardware_profile.inc
                      00001         include p16f84.inc
                      00001         LIST
                      00002 
                      00003 ;==========================================================================
                      00004 ;  MPASM PIC16F84 processor include
                      00005 ; 
                      00006 ;  (c) Copyright 1999-2013 Microchip Technology, All rights reserved
                      00007 ;==========================================================================
                      00008 
                      00206         LIST
                      00002         list p=16f84
2007   3FF1           00002         __config        _CP_OFF & _WDT_OFF & _PWRTE_ON & _XT_OSC
                      00003 
                      00004         include MicroMenu_Lib.h
                      00001 ; Микроменю на базе двухстрочного индикатора HD44780 и четырехпозиционного джойстика (крестовины кнопок)
                      00002 
Warning[205]: Found directive in column 1. (include)
                      00003 include hardware_profile.inc
                      00003         include p16f84.inc
                      00207         LIST
                      00208 
                      00209 ;==========================================================================
                      00210 ;  MPASM PIC16F84 processor include
                      00211 ; 
                      00212 ;  (c) Copyright 1999-2013 Microchip Technology, All rights reserved
                      00213 ;==========================================================================
                      00214 
Message[310]: Superseding current maximum RAM and RAM map.
                      00412         LIST
                      00004         list p=16f84
Warning[205]: Found directive in column 1. (include)
                      00004 include Macro.h 
                      00001 #define USE_SHORT_MOD_PCL       1       ; Использовать "укороченную" версию макроса модификации PCL, поз
                            воляет экономить 1 слово памяти на каждом вызове макроса ценой 1 лишней ячейки ОЗУ
                      00002 
                      00003 push    macro
                      00004                 movwf   w_temp
                      00005                 swapf   STATUS,w
                      00006                 movwf   status_temp
                      00007                 endm
                      00008 
                      00009 pop             macro
                      00010                 swapf   status_temp,w
                      00011                 movwf   STATUS
                      00012                 swapf   w_temp,f
                      00013                 swapf   w_temp,w
                      00014                 endm
                      00015 
                      00016 mod_PCL macro   target                  ; Макрос, позволяет размещать таблицы на границах страниц
                      00017                 local   Table
                      00018                 movfw   target
                      00019                 addlw   low Table               ; Добавить 8 младших бит адреса таблицы к смещению
MPASM  5.51                          MAIN.ASM   5-28-2017  23:50:07         PAGE  2


LOC  OBJECT CODE     LINE SOURCE TEXT
  VALUE

                      00020                 movwf   offset                  ; Сохранить младшие 8 бит требуемого адреса
                      00021         if      USE_SHORT_MOD_PCL
                      00022                 rlf             known_zero,w    ; так сохраняют бит переполнения от сложения 
                      00023                 addlw   high Table              ; Загрузить 5 старших бит адреса
                      00024         else
                      00025                 movlw   high Table              ; Загрузить 5 старших бит адреса
                      00026                 btfsc   STATUS,C                ; Перешли границу страницы памяти программ?
                      00027                 addlw   1                               ; Если да, увеличить на 1 старшие 5 бит
                      00028         endif
                      00029                 movwf   PCLATH                  ; Установить старшую часть адреса
                      00030                 movfw   offset                  ; Загрузить рассчитанное значание младшей части адреса
                      00031                 movwf   PCL                             ; Установить младшую часть адреса
                      00032         Table
                      00033                 endm
                      00034 
                      00035 add_PCL macro   target,address  ; Макрос, позволяет удобно указывать страницу для следующего за ним кода
                      00036                                 movfw   target  
                      00037                                 clrf    PCLATH
                      00038                         if      (address==0x100)
                      00039                                 bsf             PCLATH,0
                      00040                         endif
                      00041                         if      (address==0x200)
                      00042                                 bsf             PCLATH,1
                      00043                         endif
                      00044                         if      (address==0x300)
                      00045                                 bsf             PCLATH,0                                
                      00046                                 bsf             PCLATH,1
                      00047                         endif
                      00048                         if      (address==0x400)
                      00049                                 bsf             PCLATH,2                                
                      00050                         endif
                      00051                                 addwf   PCL
                      00052                                 endm
                      00005 
                      00006 #define USE_CURSOR                              0                               ; Всегда рисовать курсор
                             в конце 1-й строки
                      00007 #define USE_MOVING_CURSOR               1                               ; Использовать перемещаемый курс
                            ор (повышает удобство использования меню и размер прошивки)
                      00008 #define USE_TOP_LAST_CURSOR             1                               ; Использовать отображение "перв
                            ый пункт всегда сверху" и "последний пункт всегда снизу" (повышает удобство использования меню и
                      00009 #define USE_RBIE                                1                               ; Использовать прерывани
                            е по изминению состояния PORTB для обработки кнопок (позволяет использовать сон)
                      00010 
                      00011 #define UP                                              PORTB,4
                      00012 #define DOWN                                    PORTB,5
                      00013 #define ENTER                                   PORTB,6
                      00014 #define EXIT                                    PORTB,7
                      00015 
                      00016 #define Press_UP                                flags,0
                      00017 #define Press_DOWN                              flags,1
                      00018 #define Press_EXIT                              flags,2
                      00019 #define Press_ENTER                             flags,3 
                      00020 
MPASM  5.51                          MAIN.ASM   5-28-2017  23:50:07         PAGE  3


LOC  OBJECT CODE     LINE SOURCE TEXT
  VALUE

                      00021 #define EXIT_DELAY                              .20                             ; Количество опросов кно
                            пок, до выхода в предыдущий уровень (* 0,8 сек)
                      00022 
                      00023 #define ZASTAVKA_FIRST_STRING   "  MicroMenuLib"
                      00024 #define ZASTAVKA_SECOND_STRING  "  ver 1.0 beta"
                      00025 
                      00026 #define NUM_OF_MAIN_MENU_PUNKTS .5                              ; Количество пунктов меню, до 10 
                      00027 
                      00028 #define MENU_NAME_1                             "1.Menu_1"
                      00029 #define MENU_NAME_2                             "2.Menu_2"
                      00030 #define MENU_NAME_3                             "3.Menu_3"
                      00031 #define MENU_NAME_4                             "4.Menu_4"
                      00032 #define MENU_NAME_5                             "5.Menu_5"      
                      00033 
                      00034 #define NUM_OF_SUBMENU_PUNKTS_1 .3                              ; Количество подпунктов каждого пункта м
                            еню, до 10
                      00035 
                      00036 #define MENU_SUBMENU_NAME_1_1   "1.1.Garage"
                      00037 #define MENU_SUBMENU_NAME_1_2   "1.2.Doors"
                      00038 #define MENU_SUBMENU_NAME_1_3   "1.3.House"
                      00039 
                      00040 #define NUM_OF_SUBMENU_PUNKTS_2 .3
                      00041 
                      00042 #define MENU_SUBMENU_NAME_2_1   "2.1.Garage"
                      00043 #define MENU_SUBMENU_NAME_2_2   "2.2.Doors"
                      00044 #define MENU_SUBMENU_NAME_2_3   "2.3.House"
                      00045                                 
                      00046 #define NUM_OF_SUBMENU_PUNKTS_3 .3
                      00047 
                      00048 #define MENU_SUBMENU_NAME_3_1   "3.1.Review"
                      00049 #define MENU_SUBMENU_NAME_3_2   "3.2.Shut Off"
                      00050 #define MENU_SUBMENU_NAME_3_3   "3.3.FAQ"
                      00051 
                      00052 #define NUM_OF_SUBMENU_PUNKTS_4 .3
                      00053 
                      00054 #define MENU_SUBMENU_NAME_4_1   "4.1.Review"
                      00055 #define MENU_SUBMENU_NAME_4_2   "4.2.Shut Off"
                      00056 #define MENU_SUBMENU_NAME_4_3   "4.3.FAQ"
                      00057 
                      00058 #define NUM_OF_SUBMENU_PUNKTS_5 .3
                      00059 
                      00060 #define MENU_SUBMENU_NAME_5_1   "5.1.Config"
                      00061 #define MENU_SUBMENU_NAME_5_2   "5.2.Settings"
                      00062 #define MENU_SUBMENU_NAME_5_3   "5.3.About"
                      00063 
                      00064 ;=======================================================================================================
                            =========
                      00065 Create_Menu_Names       macro                           ; Макрос, создает имена всех пунктов меню
                      00066                         local   a=1
                      00067                                 while   a<NUM_OF_MAIN_MENU_PUNKTS+1
                      00068                                 Menu_#v(a)
                      00069                                         mod_PCL symbol_pointer
                      00070                                         dt              MENU_NAME_#v(a),0
MPASM  5.51                          MAIN.ASM   5-28-2017  23:50:07         PAGE  4


LOC  OBJECT CODE     LINE SOURCE TEXT
  VALUE

                      00071                                         a+=1
                      00072                                 endw
                      00073                         endm
                      00074 
                      00075 ;=======================================================================================================
                            =========
                      00076 retlw_num_of_submenu_punkts     macro           ; Макрос, возвращает количество пунктов нужного подменю
                      00077                                 mod_PCL index_menu
                      00078                         local   a=1
                      00079                                 while   a<NUM_OF_MAIN_MENU_PUNKTS+1
                      00080                                         retlw   NUM_OF_SUBMENU_PUNKTS_#v(a)
                      00081                                         a+=1
                      00082                                 endw
                      00083                         endm
                      00084 
                      00085 ;=======================================================================================================
                            =========
                      00086 goto_Punkt_Menu macro                                   ; Макрос, создает переходы на все пункты меню
                      00087                                 mod_PCL index_menu
                      00088                         local   a=1
                      00089                                 while   a<NUM_OF_MAIN_MENU_PUNKTS+1
                      00090                                         goto    Menu_#v(a)
                      00091                                         a+=1
                      00092                                 endw
                      00093                         endm
                      00094 
                      00095 ;=======================================================================================================
                            =========
                      00096 goto_Punkt_Submenu      macro                           ; Макрос, создает переходы на все подпункты меню
                      00097                                         mod_PCL index_menu                              
                      00098                         local   c=1
                      00099                                 while   c<NUM_OF_MAIN_MENU_PUNKTS+1
                      00100                                         goto    Menu_#v(c)_Table
                      00101                                         c+=1
                      00102                                 endw
                      00103                         local   d=1
                      00104 ;-------------------------------------------------------------------------------------------------------
                            ----
                      00105 ; Переходы на подпункты 1 пункта меню
                      00106 ;-------------------------------------------------------------------------------------------------------
                            ----
                      00107                                 if              d<NUM_OF_MAIN_MENU_PUNKTS+1
                      00108                                 local   a=1     
                      00109                                 Menu_#v(d)_Table
                      00110                                         mod_PCL index_submenu
                      00111                                 while   a<NUM_OF_SUBMENU_PUNKTS_#v(d)+1
                      00112                                         goto    Menu_#v(d)_Submenu_#v(a)
                      00113                                         a+=1
                      00114                                 endw
                      00115                                         d+=1
                      00116                                 endif
                      00117 ;-------------------------------------------------------------------------------------------------------
                            ----
MPASM  5.51                          MAIN.ASM   5-28-2017  23:50:07         PAGE  5


LOC  OBJECT CODE     LINE SOURCE TEXT
  VALUE

                      00118 ; Переходы на подпункты 2 пункта меню
                      00119 ;-------------------------------------------------------------------------------------------------------
                            ----
                      00120                                 if              d<NUM_OF_MAIN_MENU_PUNKTS+1
                      00121                                 local   a=1     
                      00122                                 Menu_#v(d)_Table
                      00123                                         mod_PCL index_submenu
                      00124                                 while   a<NUM_OF_SUBMENU_PUNKTS_#v(d)+1
                      00125                                         goto    Menu_#v(d)_Submenu_#v(a)
                      00126                                         a+=1
                      00127                                 endw
                      00128                                         d+=1
                      00129                                 endif
                      00130 ;-------------------------------------------------------------------------------------------------------
                            ----
                      00131 ; Переходы на подпункты 3 пункта меню
                      00132 ;-------------------------------------------------------------------------------------------------------
                            ----
                      00133                                 if              d<NUM_OF_MAIN_MENU_PUNKTS+1
                      00134                                 local   a=1     
                      00135                                 Menu_#v(d)_Table
                      00136                                         mod_PCL index_submenu
                      00137                                 while   a<NUM_OF_SUBMENU_PUNKTS_#v(d)+1
                      00138                                         goto    Menu_#v(d)_Submenu_#v(a)
                      00139                                         a+=1
                      00140                                 endw
                      00141                                         d+=1
                      00142                                 endif
                      00143 ;-------------------------------------------------------------------------------------------------------
                            ----
                      00144 ; Переходы на подпункты 4 пункта меню
                      00145 ;-------------------------------------------------------------------------------------------------------
                            ----
                      00146                                 if              d<NUM_OF_MAIN_MENU_PUNKTS+1
                      00147                                 local   a=1     
                      00148                                 Menu_#v(d)_Table
                      00149                                         mod_PCL index_submenu
                      00150                                 while   a<NUM_OF_SUBMENU_PUNKTS_#v(d)+1
                      00151                                         goto    Menu_#v(d)_Submenu_#v(a)
                      00152                                         a+=1
                      00153                                 endw
                      00154                                         d+=1
                      00155                                 endif
                      00156 ;-------------------------------------------------------------------------------------------------------
                            ----
                      00157 ; Переходы на подпункты 5 пункта меню
                      00158 ;-------------------------------------------------------------------------------------------------------
                            ----
                      00159                                 if              d<NUM_OF_MAIN_MENU_PUNKTS+1
                      00160                                 local   a=1     
                      00161                                 Menu_#v(d)_Table
                      00162                                         mod_PCL index_submenu
                      00163                                 while   a<NUM_OF_SUBMENU_PUNKTS_#v(d)+1
MPASM  5.51                          MAIN.ASM   5-28-2017  23:50:07         PAGE  6


LOC  OBJECT CODE     LINE SOURCE TEXT
  VALUE

                      00164                                         goto    Menu_#v(d)_Submenu_#v(a)
                      00165                                         a+=1
                      00166                                 endw
                      00167                                         d+=1
                      00168                                 endif
                      00169 ;-------------------------------------------------------------------------------------------------------
                            ----
                      00170 ; Переходы на подпункты 6 пункта меню
                      00171 ;-------------------------------------------------------------------------------------------------------
                            ----
                      00172                                 if              d<NUM_OF_MAIN_MENU_PUNKTS+1
                      00173                                 local   a=1     
                      00174                                 Menu_#v(d)_Table
                      00175                                         mod_PCL index_submenu
                      00176                                 while   a<NUM_OF_SUBMENU_PUNKTS_#v(d)+1
                      00177                                         goto    Menu_#v(d)_Submenu_#v(a)
                      00178                                         a+=1
                      00179                                 endw
                      00180                                         d+=1
                      00181                                 endif
                      00182 ;-------------------------------------------------------------------------------------------------------
                            ----
                      00183 ; Переходы на подпункты 7 пункта меню
                      00184 ;-------------------------------------------------------------------------------------------------------
                            ----
                      00185                                 if              d<NUM_OF_MAIN_MENU_PUNKTS+1
                      00186                                 local   a=1     
                      00187                                 Menu_#v(d)_Table
                      00188                                         mod_PCL index_submenu
                      00189                                 while   a<NUM_OF_SUBMENU_PUNKTS_#v(d)+1
                      00190                                         goto    Menu_#v(d)_Submenu_#v(a)
                      00191                                         a+=1
                      00192                                 endw
                      00193                                         d+=1
                      00194                                 endif
                      00195 ;-------------------------------------------------------------------------------------------------------
                            ----
                      00196 ; Переходы на подпункты 8 пункта меню
                      00197 ;-------------------------------------------------------------------------------------------------------
                            ----
                      00198                                 if              d<NUM_OF_MAIN_MENU_PUNKTS+1
                      00199                                 local   a=1     
                      00200                                 Menu_#v(d)_Table
                      00201                                         mod_PCL index_submenu
                      00202                                 while   a<NUM_OF_SUBMENU_PUNKTS_#v(d)+1
                      00203                                         goto    Menu_#v(d)_Submenu_#v(a)
                      00204                                         a+=1
                      00205                                 endw
                      00206                                         d+=1
                      00207                                 endif
                      00208 ;-------------------------------------------------------------------------------------------------------
                            ----
                      00209 ; Переходы на подпункты 9 пункта меню
MPASM  5.51                          MAIN.ASM   5-28-2017  23:50:07         PAGE  7


LOC  OBJECT CODE     LINE SOURCE TEXT
  VALUE

                      00210 ;-------------------------------------------------------------------------------------------------------
                            ----
                      00211                                 if              d<NUM_OF_MAIN_MENU_PUNKTS+1
                      00212                                 local   a=1     
                      00213                                 Menu_#v(d)_Table
                      00214                                         mod_PCL index_submenu
                      00215                                 while   a<NUM_OF_SUBMENU_PUNKTS_#v(d)+1
                      00216                                         goto    Menu_#v(d)_Submenu_#v(a)
                      00217                                         a+=1
                      00218                                 endw
                      00219                                         d+=1
                      00220                                 endif
                      00221 ;-------------------------------------------------------------------------------------------------------
                            ----
                      00222 ; Переходы на подпункты 10 пункта меню
                      00223 ;-------------------------------------------------------------------------------------------------------
                            ----
                      00224                                 if              d<NUM_OF_MAIN_MENU_PUNKTS+1
                      00225                                 local   a=1     
                      00226                                 Menu_#v(d)_Table
                      00227                                         mod_PCL index_submenu
                      00228                                 while   a<NUM_OF_SUBMENU_PUNKTS_#v(d)+1
                      00229                                         goto    Menu_#v(d)_Submenu_#v(a)
                      00230                                         a+=1
                      00231                                 endw
                      00232                                         d+=1
                      00233                                 endif           
                      00234 ;-------------------------------------------------------------------------------------------------------
                            ----
                      00235                         endm
                      00236 
                      00237 ;=======================================================================================================
                            =========
                      00238 goto_Punkt_Submenu_action       macro           ; Макрос, создает переходы на действия всех подпунктов м
                            еню
                      00239                                         mod_PCL index_menu                              
                      00240                         local   c=1
                      00241                                 while   c<NUM_OF_MAIN_MENU_PUNKTS+1
                      00242                                         goto    Menu_#v(c)_Table_action
                      00243                                         c+=1
                      00244                                 endw
                      00245                         local   d=1
                      00246 ;-------------------------------------------------------------------------------------------------------
                            ----
                      00247 ; Действия подпунктов 1 пункта меню
                      00248 ;-------------------------------------------------------------------------------------------------------
                            ----
                      00249                                 if              d<NUM_OF_MAIN_MENU_PUNKTS+1
                      00250                                 local   a=1     
                      00251                                 Menu_#v(d)_Table_action
                      00252                                         mod_PCL index_submenu
                      00253                                 while   a<NUM_OF_SUBMENU_PUNKTS_#v(d)+1
                      00254                                         goto    Menu_#v(d)_Submenu_#v(a)_action
MPASM  5.51                          MAIN.ASM   5-28-2017  23:50:07         PAGE  8


LOC  OBJECT CODE     LINE SOURCE TEXT
  VALUE

                      00255                                         a+=1
                      00256                                 endw
                      00257                                         d+=1
                      00258                                 endif
                      00259 ;-------------------------------------------------------------------------------------------------------
                            ----
                      00260 ; Действия подпунктов 2 пункта меню
                      00261 ;-------------------------------------------------------------------------------------------------------
                            ----
                      00262                                 if              d<NUM_OF_MAIN_MENU_PUNKTS+1
                      00263                                 local   a=1     
                      00264                                 Menu_#v(d)_Table_action
                      00265                                         mod_PCL index_submenu
                      00266                                 while   a<NUM_OF_SUBMENU_PUNKTS_#v(d)+1
                      00267                                         goto    Menu_#v(d)_Submenu_#v(a)_action
                      00268                                         a+=1
                      00269                                 endw
                      00270                                         d+=1
                      00271                                 endif
                      00272 ;-------------------------------------------------------------------------------------------------------
                            ----
                      00273 ; Действия подпунктов 3 пункта меню
                      00274 ;-------------------------------------------------------------------------------------------------------
                            ----
                      00275                                 if              d<NUM_OF_MAIN_MENU_PUNKTS+1
                      00276                                 local   a=1     
                      00277                                 Menu_#v(d)_Table_action
                      00278                                         mod_PCL index_submenu
                      00279                                 while   a<NUM_OF_SUBMENU_PUNKTS_#v(d)+1
                      00280                                         goto    Menu_#v(d)_Submenu_#v(a)_action
                      00281                                         a+=1
                      00282                                 endw
                      00283                                         d+=1
                      00284                                 endif
                      00285 ;-------------------------------------------------------------------------------------------------------
                            ----
                      00286 ; Действия подпунктов 4 пункта меню
                      00287 ;-------------------------------------------------------------------------------------------------------
                            ----
                      00288                                 if              d<NUM_OF_MAIN_MENU_PUNKTS+1
                      00289                                 local   a=1     
                      00290                                 Menu_#v(d)_Table_action
                      00291                                         mod_PCL index_submenu
                      00292                                 while   a<NUM_OF_SUBMENU_PUNKTS_#v(d)+1
                      00293                                         goto    Menu_#v(d)_Submenu_#v(a)_action
                      00294                                         a+=1
                      00295                                 endw
                      00296                                         d+=1
                      00297                                 endif
                      00298 ;-------------------------------------------------------------------------------------------------------
                            ----
                      00299 ; Действия подпунктов 5 пункта меню
                      00300 ;-------------------------------------------------------------------------------------------------------
MPASM  5.51                          MAIN.ASM   5-28-2017  23:50:07         PAGE  9


LOC  OBJECT CODE     LINE SOURCE TEXT
  VALUE

                            ----
                      00301                                 if              d<NUM_OF_MAIN_MENU_PUNKTS+1
                      00302                                 local   a=1     
                      00303                                 Menu_#v(d)_Table_action
                      00304                                         mod_PCL index_submenu
                      00305                                 while   a<NUM_OF_SUBMENU_PUNKTS_#v(d)+1
                      00306                                         goto    Menu_#v(d)_Submenu_#v(a)_action
                      00307                                         a+=1
                      00308                                 endw
                      00309                                         d+=1
                      00310                                 endif
                      00311 ;-------------------------------------------------------------------------------------------------------
                            ----
                      00312 ; Действия подпунктов 6 пункта меню
                      00313 ;-------------------------------------------------------------------------------------------------------
                            ----
                      00314                                 if              d<NUM_OF_MAIN_MENU_PUNKTS+1
                      00315                                 local   a=1     
                      00316                                 Menu_#v(d)_Table_action
                      00317                                         mod_PCL index_submenu
                      00318                                 while   a<NUM_OF_SUBMENU_PUNKTS_#v(d)+1
                      00319                                         goto    Menu_#v(d)_Submenu_#v(a)_action
                      00320                                         a+=1
                      00321                                 endw
                      00322                                         d+=1
                      00323                                 endif
                      00324 ;-------------------------------------------------------------------------------------------------------
                            ----
                      00325 ; Действия подпунктов 7 пункта меню
                      00326 ;-------------------------------------------------------------------------------------------------------
                            ----
                      00327                                 if              d<NUM_OF_MAIN_MENU_PUNKTS+1
                      00328                                 local   a=1     
                      00329                                 Menu_#v(d)_Table_action
                      00330                                         mod_PCL index_submenu
                      00331                                 while   a<NUM_OF_SUBMENU_PUNKTS_#v(d)+1
                      00332                                         goto    Menu_#v(d)_Submenu_#v(a)_action
                      00333                                         a+=1
                      00334                                 endw
                      00335                                         d+=1
                      00336                                 endif
                      00337 ;-------------------------------------------------------------------------------------------------------
                            ----
                      00338 ; Действия подпунктов 8 пункта меню
                      00339 ;-------------------------------------------------------------------------------------------------------
                            ----
                      00340                                 if              d<NUM_OF_MAIN_MENU_PUNKTS+1
                      00341                                 local   a=1     
                      00342                                 Menu_#v(d)_Table_action
                      00343                                         mod_PCL index_submenu
                      00344                                 while   a<NUM_OF_SUBMENU_PUNKTS_#v(d)+1
                      00345                                         goto    Menu_#v(d)_Submenu_#v(a)_action
                      00346                                         a+=1
MPASM  5.51                          MAIN.ASM   5-28-2017  23:50:07         PAGE 10


LOC  OBJECT CODE     LINE SOURCE TEXT
  VALUE

                      00347                                 endw
                      00348                                         d+=1
                      00349                                 endif
                      00350 ;-------------------------------------------------------------------------------------------------------
                            ----
                      00351 ; Действия подпунктов 9 пункта меню
                      00352 ;-------------------------------------------------------------------------------------------------------
                            ----
                      00353                                 if              d<NUM_OF_MAIN_MENU_PUNKTS+1
                      00354                                 local   a=1     
                      00355                                 Menu_#v(d)_Table_action
                      00356                                         mod_PCL index_submenu
                      00357                                 while   a<NUM_OF_SUBMENU_PUNKTS_#v(d)+1
                      00358                                         goto    Menu_#v(d)_Submenu_#v(a)_action
                      00359                                         a+=1
                      00360                                 endw
                      00361                                         d+=1
                      00362                                 endif
                      00363 ;-------------------------------------------------------------------------------------------------------
                            ----
                      00364 ; Действия подпунктов 10 пункта меню
                      00365 ;-------------------------------------------------------------------------------------------------------
                            ----
                      00366                                 if              d<NUM_OF_MAIN_MENU_PUNKTS+1
                      00367                                 local   a=1     
                      00368                                 Menu_#v(d)_Table_action
                      00369                                         mod_PCL index_submenu
                      00370                                 while   a<NUM_OF_SUBMENU_PUNKTS_#v(d)+1
                      00371                                         goto    Menu_#v(d)_Submenu_#v(a)_action
                      00372                                         a+=1
                      00373                                 endw
                      00374                                         d+=1
                      00375                                 endif
                      00376 ;-------------------------------------------------------------------------------------------------------
                            ----
                      00377                         endm
                      00378 
                      00379 ;===================================================================================================
                      00380 Create_Submenu_Names    macro                           ; Макрос, создает имена всех подпунктов меню
                      00381                                 local   d=1
                      00382 ;-------------------------------------------------------------------------------------------------------
                            ----
                      00383 ; Подпункты 1 пункта меню
                      00384 ;-------------------------------------------------------------------------------------------------------
                            ----
                      00385                                 if              d<NUM_OF_MAIN_MENU_PUNKTS+1
                      00386                                 local   a=1     
                      00387                                 while   a<NUM_OF_SUBMENU_PUNKTS_#v(d)+1
                      00388                                         Menu_#v(d)_Submenu_#v(a)
                      00389                                                 mod_PCL symbol_pointer
                      00390                                                 dt              MENU_SUBMENU_NAME_1_#v(a),0
                      00391                                         a+=1
                      00392                                 endw
MPASM  5.51                          MAIN.ASM   5-28-2017  23:50:07         PAGE 11


LOC  OBJECT CODE     LINE SOURCE TEXT
  VALUE

                      00393                                         d+=1
                      00394                                 endif
                      00395 ;-------------------------------------------------------------------------------------------------------
                            ----
                      00396 ; Подпункты 2 пункта меню
                      00397 ;-------------------------------------------------------------------------------------------------------
                            ----
                      00398                                 if              d<NUM_OF_MAIN_MENU_PUNKTS+1
                      00399                                 local   a=1     
                      00400                                 while   a<NUM_OF_SUBMENU_PUNKTS_#v(d)+1
                      00401                                         Menu_#v(d)_Submenu_#v(a)
                      00402                                                 mod_PCL symbol_pointer
                      00403                                                 dt              MENU_SUBMENU_NAME_2_#v(a),0
                      00404                                         a+=1
                      00405                                 endw
                      00406                                         d+=1
                      00407                                 endif
                      00408 ;-------------------------------------------------------------------------------------------------------
                            ----
                      00409 ; Подпункты 3 пункта меню
                      00410 ;-------------------------------------------------------------------------------------------------------
                            ----
                      00411                                 if              d<NUM_OF_MAIN_MENU_PUNKTS+1
                      00412                                 local   a=1     
                      00413                                 while   a<NUM_OF_SUBMENU_PUNKTS_#v(d)+1
                      00414                                         Menu_#v(d)_Submenu_#v(a)
                      00415                                                 mod_PCL symbol_pointer
                      00416                                                 dt              MENU_SUBMENU_NAME_3_#v(a),0
                      00417                                         a+=1
                      00418                                 endw
                      00419                                         d+=1
                      00420                                 endif
                      00421 ;-------------------------------------------------------------------------------------------------------
                            ----
                      00422 ; Подпункты 4 пункта меню
                      00423 ;-------------------------------------------------------------------------------------------------------
                            ----
                      00424                                 if              d<NUM_OF_MAIN_MENU_PUNKTS+1
                      00425                                 local   a=1     
                      00426                                 while   a<NUM_OF_SUBMENU_PUNKTS_#v(d)+1
                      00427                                         Menu_#v(d)_Submenu_#v(a)
                      00428                                                 mod_PCL symbol_pointer
                      00429                                                 dt              MENU_SUBMENU_NAME_4_#v(a),0
                      00430                                         a+=1
                      00431                                 endw
                      00432                                         d+=1
                      00433                                 endif
                      00434 ;-------------------------------------------------------------------------------------------------------
                            ----
                      00435 ; Подпункты 5 пункта меню
                      00436 ;-------------------------------------------------------------------------------------------------------
                            ----
                      00437                                 if              d<NUM_OF_MAIN_MENU_PUNKTS+1
MPASM  5.51                          MAIN.ASM   5-28-2017  23:50:07         PAGE 12


LOC  OBJECT CODE     LINE SOURCE TEXT
  VALUE

                      00438                                 local   a=1     
                      00439                                 while   a<NUM_OF_SUBMENU_PUNKTS_#v(d)+1
                      00440                                         Menu_#v(d)_Submenu_#v(a)
                      00441                                                 mod_PCL symbol_pointer
                      00442                                                 dt              MENU_SUBMENU_NAME_5_#v(a),0
                      00443                                         a+=1
                      00444                                 endw
                      00445                                         d+=1
                      00446                                 endif
                      00447 ;-------------------------------------------------------------------------------------------------------
                            ----
                      00448 ; Подпункты 6 пункта меню
                      00449 ;-------------------------------------------------------------------------------------------------------
                            ----
                      00450                                 if              d<NUM_OF_MAIN_MENU_PUNKTS+1
                      00451                                 local   a=1     
                      00452                                 while   a<NUM_OF_SUBMENU_PUNKTS_#v(d)+1
                      00453                                         Menu_#v(d)_Submenu_#v(a)
                      00454                                                 mod_PCL symbol_pointer
                      00455                                                 dt              MENU_SUBMENU_NAME_6_#v(a),0
                      00456                                         a+=1
                      00457                                 endw
                      00458                                         d+=1
                      00459                                 endif
                      00460 ;-------------------------------------------------------------------------------------------------------
                            ----
                      00461 ; Подпункты 7 пункта меню
                      00462 ;-------------------------------------------------------------------------------------------------------
                            ----
                      00463                                 if              d<NUM_OF_MAIN_MENU_PUNKTS+1
                      00464                                 local   a=1     
                      00465                                 while   a<NUM_OF_SUBMENU_PUNKTS_#v(d)+1
                      00466                                         Menu_#v(d)_Submenu_#v(a)
                      00467                                                 mod_PCL symbol_pointer
                      00468                                                 dt              MENU_SUBMENU_NAME_7_#v(a),0
                      00469                                         a+=1
                      00470                                 endw
                      00471                                         d+=1
                      00472                                 endif
                      00473 ;-------------------------------------------------------------------------------------------------------
                            ----
                      00474 ; Подпункты 8 пункта меню
                      00475 ;-------------------------------------------------------------------------------------------------------
                            ----
                      00476                                 if              d<NUM_OF_MAIN_MENU_PUNKTS+1
                      00477                                 local   a=1     
                      00478                                 while   a<NUM_OF_SUBMENU_PUNKTS_#v(d)+1
                      00479                                         Menu_#v(d)_Submenu_#v(a)
                      00480                                                 mod_PCL symbol_pointer
                      00481                                                 dt              MENU_SUBMENU_NAME_8_#v(a),0
                      00482                                         a+=1
                      00483                                 endw
                      00484                                         d+=1
MPASM  5.51                          MAIN.ASM   5-28-2017  23:50:07         PAGE 13


LOC  OBJECT CODE     LINE SOURCE TEXT
  VALUE

                      00485                                 endif
                      00486 ;-------------------------------------------------------------------------------------------------------
                            ----
                      00487 ; Подпункты 9 пункта меню
                      00488 ;-------------------------------------------------------------------------------------------------------
                            ----
                      00489                                 if              d<NUM_OF_MAIN_MENU_PUNKTS+1
                      00490                                 local   a=1     
                      00491                                 while   a<NUM_OF_SUBMENU_PUNKTS_#v(d)+1
                      00492                                                 mod_PCL symbol_pointer
                      00493                                                 dt              MENU_SUBMENU_NAME_9_#v(a),0
                      00494                                         a+=1
                      00495                                 endw
                      00496                                         d+=1
                      00497                                 endif
                      00498 ;-------------------------------------------------------------------------------------------------------
                            ----
                      00499 ; Подпункты 10 пункта меню
                      00500 ;-------------------------------------------------------------------------------------------------------
                            ----
                      00501                                 if              d<NUM_OF_MAIN_MENU_PUNKTS+1
                      00502                                 local   a=1     
                      00503                                 while   a<NUM_OF_SUBMENU_PUNKTS_#v(d)+1
                      00504                                         Menu_#v(d)_Submenu_#v(a)
                      00505                                                 mod_PCL symbol_pointer
                      00506                                                 dt              MENU_SUBMENU_NAME_10_#v(a),0
                      00507                                         a+=1
                      00508                                 endw
                      00509                                         d+=1
                      00510                                 endif
                      00511 ;-------------------------------------------------------------------------------------------------------
                            ----
                      00512                         endm
                      00005 
                      00006 Main_udata      udata_shr
0000                  00007 w_temp          res     1
0001                  00008 status_temp     res     1
0002                  00009 flags           res     1
0003                  00010 offset          res     1
                      00011 
                      00012         if      USE_SHORT_MOD_PCL
0004                  00013 known_zero      res     1
Warning[205]: Found directive in column 1. (global)
  0000                00014 global  known_zero
                      00015         endif
                      00016 
  0000                00017         global  flags,offset
                      00018 
  0000                00019         global  End_Interrupt_Heandler,Main
  0000                00020         extern  LCD_Line_Init,LCD_Init
  0000                00021         extern  Menu_heandler,Zastavka
                      00022 ;==============================================================================================
                      00023 RESET_VECTOR    code    0h
MPASM  5.51                          MAIN.ASM   5-28-2017  23:50:07         PAGE 14


LOC  OBJECT CODE     LINE SOURCE TEXT
  VALUE

0000   2???           00024         goto    Init
                      00025 ;==============================================================================================
                      00026 ISR                             code    4h                              ; Вектор прерывания
0004                  00027 Interrupt_Heandler
                      00028         push                                                            ; Сохраним контекст
0004   00??               M                 movwf   w_temp
0005   0E03               M                 swapf   STATUS,w
0006   00??               M                 movwf   status_temp
                      00029 
Warning[205]: Found directive in column 1. (if)
                      00030 if      USE_RBIE
0007   100B           00031         bcf             INTCON,RBIF                                     ; Сбросим флаг вызваного прерыва
                            ния
0008   0806           00032         movfw   PORTB                                           
0009   380F           00033         iorlw   b'00001111'                                     ; Установим незначущие разряды
000A   3E01           00034         addlw   .1
000B   1903           00035         btfsc   STATUS,Z
000C   2???           00036         goto    End_Interrupt_Heandler          ; Если ни одна кнопка не нажата, пропустим обработку наж
                            атия
000D   118B           00037         bcf             INTCON,RBIE                                     ; Запретим все дальнейшие прерыв
                            ания от кнопок, до обработки этого нажатия
000E   1E06           00038         btfss   UP
000F   1400           00039         bsf             Press_UP                
0010   1E86           00040         btfss   DOWN
0011   1480           00041         bsf             Press_DOWN
0012   1F06           00042         btfss   ENTER
0013   1580           00043         bsf             Press_ENTER
0014   1F86           00044         btfss   EXIT
0015   1500           00045         bsf             Press_EXIT
Warning[205]: Found directive in column 1. (endif)
                      00046 endif
                      00047 
0016                  00048 End_Interrupt_Heandler
                      00049         pop                                                                     ; Восстановим контекст  
0016   0E??               M                 swapf   status_temp,w
0017   0083               M                 movwf   STATUS
0018   0E??               M                 swapf   w_temp,f
0019   0E??               M                 swapf   w_temp,w
001A   0009           00050         retfie
                      00051 
                      00052 ;-------------------------------------------------------------------------------------------------------
                            ------------
001B                  00053 Init
001B   1683           00054         banksel OPTION_REG
001C   3000           00055         movlw   b'00000000'                                     ; Enable pull-ups resistors on PortB
Message[302]: Register in operand not in bank 0.  Ensure that bank bits are correct.
001D   0081           00056         movwf   OPTION_REG
001E   2???           00057         call    LCD_Line_Init                           ; Инициализация линий управления и шины данных д
                            ля работы с дисплеем
001F   1283           00058         banksel TMR0
0020   2???           00059         call    LCD_Init                                        ; Инициалзация самого дисплея
0021   01??           00060         clrf    flags
Warning[205]: Found directive in column 1. (if)
MPASM  5.51                          MAIN.ASM   5-28-2017  23:50:07         PAGE 15


LOC  OBJECT CODE     LINE SOURCE TEXT
  VALUE

                      00061 if      USE_RBIE
0022   3088           00062         movlw   (1<<RBIE)|(1<<GIE)
Message[305]: Using default destination of 1 (file).
0023   048B           00063         iorwf   INTCON
Warning[205]: Found directive in column 1. (endif)
                      00064 endif
0024   2???           00065         goto    Zastavka                                        ; Выведем на экран заставку
0025                  00066 Main
Warning[205]: Found directive in column 1. (if)
                      00067 if      USE_RBIE
0025   0063           00068         sleep
0026   0000           00069         nop
0027   08??           00070         movfw   flags                                           
0028   390F           00071         andlw   b'00001111'                                     ; Занулим незначущие разряды
0029   1903           00072         btfsc   STATUS,Z
Warning[205]: Found directive in column 1. (else)
                      00073 else
                      00074         movfw   PORTB                                           
                      00075         iorlw   b'00001111'                                     ; Установим незначущие разряды
                      00076         addlw   .1
                      00077         btfsc   STATUS,Z
                      00078 endif
002A   2???           00079         goto    Main                                            ; Если ни одна кнопка не нажата, просто 
                            зациклимся
002B   2???           00080         goto    Menu_heandler                           ; Иначе входим в обработчик меню
                      00081 
3FF1                  00082         end
MPASM  5.51                          MAIN.ASM   5-28-2017  23:50:07         PAGE 16


SYMBOL TABLE
  LABEL                             VALUE 

C                                 00000000
Create_Menu_Names                 
Create_Submenu_Names              
DC                                00000001
DOWN                              PORTB,5
EEADR                             00000009
EECON1                            00000088
EECON2                            00000089
EEDATA                            00000008
EEIE                              00000006
EEIF                              00000004
ENTER                             PORTB,6
EXIT                              PORTB,7
EXIT_DELAY                        .20
End_Interrupt_Heandler            00000016
F                                 00000001
FSR                               00000004
GIE                               00000007
INDF                              00000000
INTCON                            0000000B
INTE                              00000004
INTEDG                            00000006
INTF                              00000001
IRP                               00000007
Init                              0000001B
Interrupt_Heandler                00000004
LCD_Init                          00000000
LCD_Line_Init                     00000000
MENU_NAME_1                       "1.Menu_1"
MENU_NAME_2                       "2.Menu_2"
MENU_NAME_3                       "3.Menu_3"
MENU_NAME_4                       "4.Menu_4"
MENU_NAME_5                       "5.Menu_5"
MENU_SUBMENU_NAME_1_1             "1.1.Garage"
MENU_SUBMENU_NAME_1_2             "1.2.Doors"
MENU_SUBMENU_NAME_1_3             "1.3.House"
MENU_SUBMENU_NAME_2_1             "2.1.Garage"
MENU_SUBMENU_NAME_2_2             "2.2.Doors"
MENU_SUBMENU_NAME_2_3             "2.3.House"
MENU_SUBMENU_NAME_3_1             "3.1.Review"
MENU_SUBMENU_NAME_3_2             "3.2.Shut Off"
MENU_SUBMENU_NAME_3_3             "3.3.FAQ"
MENU_SUBMENU_NAME_4_1             "4.1.Review"
MENU_SUBMENU_NAME_4_2             "4.2.Shut Off"
MENU_SUBMENU_NAME_4_3             "4.3.FAQ"
MENU_SUBMENU_NAME_5_1             "5.1.Config"
MENU_SUBMENU_NAME_5_2             "5.2.Settings"
MENU_SUBMENU_NAME_5_3             "5.3.About"
Main                              00000025
Menu_heandler                     00000000
NOT_PD                            00000003
NOT_RBPU                          00000007
NOT_TO                            00000004
MPASM  5.51                          MAIN.ASM   5-28-2017  23:50:07         PAGE 17


SYMBOL TABLE
  LABEL                             VALUE 

NUM_OF_MAIN_MENU_PUNKTS           .5
NUM_OF_SUBMENU_PUNKTS_1           .3
NUM_OF_SUBMENU_PUNKTS_2           .3
NUM_OF_SUBMENU_PUNKTS_3           .3
NUM_OF_SUBMENU_PUNKTS_4           .3
NUM_OF_SUBMENU_PUNKTS_5           .3
OPTION_REG                        00000081
PCL                               00000002
PCLATH                            0000000A
PORTA                             00000005
PORTB                             00000006
PS0                               00000000
PS1                               00000001
PS2                               00000002
PSA                               00000003
Press_DOWN                        flags,1
Press_ENTER                       flags,3
Press_EXIT                        flags,2
Press_UP                          flags,0
RA0                               00000000
RA1                               00000001
RA2                               00000002
RA3                               00000003
RA4                               00000004
RB0                               00000000
RB1                               00000001
RB2                               00000002
RB3                               00000003
RB4                               00000004
RB5                               00000005
RB6                               00000006
RB7                               00000007
RBIE                              00000003
RBIF                              00000000
RD                                00000000
RP0                               00000005
RP1                               00000006
STATUS                            00000003
T0CS                              00000005
T0IE                              00000005
T0IF                              00000002
T0SE                              00000004
TMR0                              00000001
TMR0IE                            00000005
TMR0IF                            00000002
TRISA                             00000085
TRISA0                            00000000
TRISA1                            00000001
TRISA2                            00000002
TRISA3                            00000003
TRISA4                            00000004
TRISB                             00000086
TRISB0                            00000000
MPASM  5.51                          MAIN.ASM   5-28-2017  23:50:07         PAGE 18


SYMBOL TABLE
  LABEL                             VALUE 

TRISB1                            00000001
TRISB2                            00000002
TRISB3                            00000003
TRISB4                            00000004
TRISB5                            00000005
TRISB6                            00000006
TRISB7                            00000007
UP                                PORTB,4
USE_CURSOR                        0
USE_MOVING_CURSOR                 1
USE_RBIE                          1
USE_SHORT_MOD_PCL                 1
USE_TOP_LAST_CURSOR               1
W                                 00000000
WR                                00000001
WREN                              00000002
WRERR                             00000003
Z                                 00000002
ZASTAVKA_FIRST_STRING             "  MicroMenuLib"
ZASTAVKA_SECOND_STRING            "  ver 1.0 beta"
Zastavka                          00000000
_CONFIG                           00002007
_CP_OFF                           00003FFF
_CP_ON                            0000000F
_FOSC_EXTRC                       00003FFF
_FOSC_HS                          00003FFE
_FOSC_LP                          00003FFC
_FOSC_XT                          00003FFD
_HS_OSC                           00003FFE
_IDLOC0                           00002000
_IDLOC1                           00002001
_IDLOC2                           00002002
_IDLOC3                           00002003
_LP_OSC                           00003FFC
_PWRTE_OFF                        00003FFF
_PWRTE_ON                         00003FF7
_RC_OSC                           00003FFF
_WDTE_OFF                         00003FFB
_WDTE_ON                          00003FFF
_WDT_OFF                          00003FFB
_WDT_ON                           00003FFF
_XT_OSC                           00003FFD
__16F84                           00000001
add_PCL                           
flags                             00000002
goto_Punkt_Menu                   
goto_Punkt_Submenu                
goto_Punkt_Submenu_action         
known_zero                        00000004
mod_PCL                           
offset                            00000003
pop                               
push                              
MPASM  5.51                          MAIN.ASM   5-28-2017  23:50:07         PAGE 19


SYMBOL TABLE
  LABEL                             VALUE 

retlw_num_of_submenu_punkts       
status_temp                       00000001
w_temp                            00000000

Errors   :     0
Warnings :     9 reported,     0 suppressed
Messages :     3 reported,     0 suppressed

